target datalayout = "e-m:e-p270:32:32-p271:32:32-p272:64:64-i64:64-i128:128-f80:128-n8:16:32:64-S128"
target triple = "x86_64-pc-linux-gnu"

%struct.H5G_loc_t = type { ptr, ptr }
%struct.H5VL_loc_params_t = type { i32, i32, %union.anon }
%union.anon = type { %struct.H5VL_loc_by_idx }
%struct.H5VL_loc_by_idx = type { ptr, i32, i32, i64, i64 }
%struct.H5T_t = type { %struct.H5O_shared_t, ptr, %struct.H5O_loc_t, %struct.H5G_name_t, ptr }
%struct.H5O_shared_t = type { i32, ptr, i32, %union.anon.0 }
%union.anon.0 = type { %struct.H5O_mesg_loc_t }
%struct.H5O_mesg_loc_t = type { i32, i64 }
%struct.H5O_loc_t = type { ptr, i64, i8 }
%struct.H5G_name_t = type { ptr, ptr, i32 }

@.str = private unnamed_addr constant [113 x i8] c"generated/home/dtcxzyw/WorkSpace/Projects/compilers/llvm-opt-benchmark/bench/hdf5/hdf5/src/H5VLnative_datatype.c\00", align 1
@H5E_ARGS_g = external global i64, align 8
@H5E_BADTYPE_g = external global i64, align 8
@.str.1 = private unnamed_addr constant [26 x i8] c"not a file or file object\00", align 1
@H5E_DATATYPE_g = external global i64, align 8
@__func__.H5VL__native_datatype_open = private unnamed_addr constant [27 x i8] c"H5VL__native_datatype_open\00", align 1
@H5E_CANTOPENOBJ_g = external global i64, align 8
@.str.8 = private unnamed_addr constant [30 x i8] c"unable to open named datatype\00", align 1

; Function Attrs: nounwind uwtable
define ptr @H5VL__native_datatype_open(ptr noundef %0, ptr noundef %1, ptr noundef %2, i64 noundef %3, i64 noundef %4, ptr noundef %5) #0 {
  %7 = alloca ptr, align 8
  %8 = alloca ptr, align 8
  %9 = alloca ptr, align 8
  %10 = alloca i64, align 8
  %11 = alloca i64, align 8
  %12 = alloca ptr, align 8
  %13 = alloca ptr, align 8
  %14 = alloca %struct.H5G_loc_t, align 8
  %15 = alloca ptr, align 8
  %16 = alloca i8, align 1
  store ptr %0, ptr %7, align 8
  store ptr %1, ptr %8, align 8
  store ptr %2, ptr %9, align 8
  store i64 %3, ptr %10, align 8
  store i64 %4, ptr %11, align 8
  store ptr %5, ptr %12, align 8
  store ptr null, ptr %13, align 8
  store ptr null, ptr %15, align 8
  store i8 0, ptr %16, align 1
  %17 = load ptr, ptr %7, align 8
  %18 = load ptr, ptr %8, align 8
  %19 = getelementptr inbounds %struct.H5VL_loc_params_t, ptr %18, i32 0, i32 0
  %20 = load i32, ptr %19, align 8
  %21 = call i32 @H5G_loc_real(ptr noundef %17, i32 noundef %20, ptr noundef %14)
  %22 = icmp slt i32 %21, 0
  br i1 %22, label %23, label %38

23:                                               ; preds = %6
  br label %24

24:                                               ; preds = %23
  br label %25

25:                                               ; preds = %24
  br label %26

26:                                               ; preds = %25
  %27 = load i64, ptr @H5E_ARGS_g, align 8
  %28 = load i64, ptr @H5E_BADTYPE_g, align 8
  %29 = call i32 (ptr, ptr, i32, i64, i64, ptr, ...) @H5E_printf_stack(ptr noundef @.str, ptr noundef @__func__.H5VL__native_datatype_open, i32 noundef 153, i64 noundef %27, i64 noundef %28, ptr noundef @.str.1)
  br label %30

30:                                               ; preds = %26
  store i8 1, ptr %16, align 1
  %31 = load i8, ptr %16, align 1
  %32 = trunc i8 %31 to i1
  %33 = zext i1 %32 to i8
  store i8 %33, ptr %16, align 1
  br label %34

34:                                               ; preds = %30
  br label %35

35:                                               ; preds = %34
  store ptr null, ptr %15, align 8
  br label %61

36:                                               ; No predecessors!
  br label %37

37:                                               ; preds = %36
  br label %38

38:                                               ; preds = %37, %6
  %39 = load ptr, ptr %9, align 8
  %40 = call ptr @H5T__open_name(ptr noundef %14, ptr noundef %39)
  store ptr %40, ptr %13, align 8
  %41 = icmp eq ptr null, %40
  br i1 %41, label %42, label %57

42:                                               ; preds = %38
  br label %43

43:                                               ; preds = %42
  br label %44

44:                                               ; preds = %43
  br label %45

45:                                               ; preds = %44
  %46 = load i64, ptr @H5E_DATATYPE_g, align 8
  %47 = load i64, ptr @H5E_CANTOPENOBJ_g, align 8
  %48 = call i32 (ptr, ptr, i32, i64, i64, ptr, ...) @H5E_printf_stack(ptr noundef @.str, ptr noundef @__func__.H5VL__native_datatype_open, i32 noundef 157, i64 noundef %46, i64 noundef %47, ptr noundef @.str.8)
  br label %49

49:                                               ; preds = %45
  store i8 1, ptr %16, align 1
  %50 = load i8, ptr %16, align 1
  %51 = trunc i8 %50 to i1
  %52 = zext i1 %51 to i8
  store i8 %52, ptr %16, align 1
  br label %53

53:                                               ; preds = %49
  br label %54

54:                                               ; preds = %53
  store ptr null, ptr %15, align 8
  br label %61

55:                                               ; No predecessors!
  br label %56

56:                                               ; preds = %55
  br label %57

57:                                               ; preds = %56, %38
  %58 = load ptr, ptr %13, align 8
  %59 = getelementptr inbounds %struct.H5T_t, ptr %58, i32 0, i32 4
  store ptr null, ptr %59, align 8
  %60 = load ptr, ptr %13, align 8
  store ptr %60, ptr %15, align 8
  br label %61

61:                                               ; preds = %57, %54, %35
  %62 = load ptr, ptr %15, align 8
  ret ptr %62
}