; Function Attrs: nounwind uwtable
define ptr @H5VL__native_datatype_open(ptr noundef %0, ptr nocapture noundef readonly %1, ptr noundef %2, i64 noundef %3, i64 noundef %4, ptr nocapture noundef readnone %5) local_unnamed_addr #0 {
  %7 = alloca %struct.H5G_loc_t, align 8
  %8 = load i32, ptr %1, align 8
  %9 = call i32 @H5G_loc_real(ptr noundef %0, i32 noundef %8, ptr noundef nonnull %7) #2
  %10 = icmp slt i32 %9, 0
  br i1 %10, label %11, label %15

11:                                               ; preds = %6
  %12 = load i64, ptr @H5E_ARGS_g, align 8
  %13 = load i64, ptr @H5E_BADTYPE_g, align 8
  %14 = call i32 (ptr, ptr, i32, i64, i64, ptr, ...) @H5E_printf_stack(ptr noundef nonnull @.str, ptr noundef nonnull @__func__.H5VL__native_datatype_open, i32 noundef 153, i64 noundef %12, i64 noundef %13, ptr noundef nonnull @.str.1) #2
  br label %24

15:                                               ; preds = %6
  %16 = call ptr @H5T__open_name(ptr noundef nonnull %7, ptr noundef %2) #2
  %17 = icmp eq ptr %16, null
  br i1 %17, label %18, label %22

18:                                               ; preds = %15
  %19 = load i64, ptr @H5E_DATATYPE_g, align 8
  %20 = load i64, ptr @H5E_CANTOPENOBJ_g, align 8
  %21 = call i32 (ptr, ptr, i32, i64, i64, ptr, ...) @H5E_printf_stack(ptr noundef nonnull @.str, ptr noundef nonnull @__func__.H5VL__native_datatype_open, i32 noundef 157, i64 noundef %19, i64 noundef %20, ptr noundef nonnull @.str.8) #2
  br label %24

22:                                               ; preds = %15
  %23 = getelementptr inbounds i8, ptr %16, i64 96
  store ptr null, ptr %23, align 8
  br label %24

24:                                               ; preds = %22, %18, %11
  %.0 = phi ptr [ null, %11 ], [ null, %18 ], [ %16, %22 ]
  ret ptr %.0
}